target datalayout = "e-m:e-p270:32:32-p271:32:32-p272:64:64-i64:64-i128:128-f80:128-n8:16:32:64-S128"
target triple = "x86_64-pc-linux-gnu"

%struct.ObjectAddress = type { i32, i32, i32 }

; Function Attrs: nounwind uwtable
define dso_local i32 @inv_drop(i32 noundef %0) #0 {
  %2 = alloca i32, align 4
  %3 = alloca %struct.ObjectAddress, align 4
  store i32 %0, ptr %2, align 4
  call void @llvm.lifetime.start.p0(i64 12, ptr %3) #7
  %4 = getelementptr inbounds nuw %struct.ObjectAddress, ptr %3, i32 0, i32 0
  store i32 2613, ptr %4, align 4
  %5 = load i32, ptr %2, align 4
  %6 = getelementptr inbounds nuw %struct.ObjectAddress, ptr %3, i32 0, i32 1
  store i32 %5, ptr %6, align 4
  %7 = getelementptr inbounds nuw %struct.ObjectAddress, ptr %3, i32 0, i32 2
  store i32 0, ptr %7, align 4
  call void @performDeletion(ptr noundef %3, i32 noundef 1, i32 noundef 0)
  call void @CommandCounterIncrement()
  call void @llvm.lifetime.end.p0(i64 12, ptr %3) #7
  ret i32 1
}