; Function Attrs: nounwind uwtable
define dso_local noundef i32 @inv_drop(i32 noundef %0) local_unnamed_addr #0 {
  %2 = alloca %struct.ObjectAddress, align 4
  call void @llvm.lifetime.start.p0(i64 12, ptr nonnull %2) #9
  store i32 2613, ptr %2, align 4
  %3 = getelementptr inbounds nuw i8, ptr %2, i64 4
  store i32 %0, ptr %3, align 4
  %4 = getelementptr inbounds nuw i8, ptr %2, i64 8
  store i32 0, ptr %4, align 4
  call void @performDeletion(ptr noundef nonnull %2, i32 noundef 1, i32 noundef 0) #9
  call void @CommandCounterIncrement() #9
  call void @llvm.lifetime.end.p0(i64 12, ptr nonnull %2) #9
  ret i32 1
}